target datalayout = "e-m:e-p270:32:32-p271:32:32-p272:64:64-i64:64-i128:128-f80:128-n8:16:32:64-S128"
target triple = "x86_64-pc-linux-gnu"

%"class.llvm::Trace" = type { %"class.std::vector" }
%"class.std::vector" = type { %"struct.std::_Vector_base" }
%"struct.std::_Vector_base" = type { %"struct.std::_Vector_base<llvm::BasicBlock *, std::allocator<llvm::BasicBlock *>>::_Vector_impl" }
%"struct.std::_Vector_base<llvm::BasicBlock *, std::allocator<llvm::BasicBlock *>>::_Vector_impl" = type { %"struct.std::_Vector_base<llvm::BasicBlock *, std::allocator<llvm::BasicBlock *>>::_Vector_impl_data" }
%"struct.std::_Vector_base<llvm::BasicBlock *, std::allocator<llvm::BasicBlock *>>::_Vector_impl_data" = type { ptr, ptr, ptr }
%"class.llvm::BasicBlock" = type { %"class.llvm::Value", %"class.llvm::ilist_node_with_parent", i8, i32, %"class.llvm::SymbolTableList", ptr }
%"class.llvm::Value" = type { i8, i8, i16, i32, ptr, ptr }
%"class.llvm::ilist_node_with_parent" = type { %"class.llvm::ilist_node" }
%"class.llvm::ilist_node" = type { %"class.llvm::ilist_node_impl" }
%"class.llvm::ilist_node_impl" = type { %"class.llvm::ilist_node_base" }
%"class.llvm::ilist_node_base" = type { %"class.llvm::ilist_detail::node_base_prevnext" }
%"class.llvm::ilist_detail::node_base_prevnext" = type { ptr, ptr }
%"class.llvm::SymbolTableList" = type { %"class.llvm::iplist_impl" }
%"class.llvm::iplist_impl" = type { %"class.llvm::simple_ilist" }
%"class.llvm::simple_ilist" = type { %"class.llvm::ilist_sentinel" }
%"class.llvm::ilist_sentinel" = type { %"class.llvm::ilist_node_impl.0" }
%"class.llvm::ilist_node_impl.0" = type { %"class.llvm::ilist_node_base.1" }
%"class.llvm::ilist_node_base.1" = type { %"class.llvm::ilist_detail::node_base_prevnext.2", %"class.llvm::ilist_detail::node_base_parent.3" }
%"class.llvm::ilist_detail::node_base_prevnext.2" = type { ptr, ptr }
%"class.llvm::ilist_detail::node_base_parent.3" = type { ptr }
%"class.llvm::GlobalValue" = type { %"class.llvm::Constant", ptr, i32, i32, ptr }
%"class.llvm::Constant" = type { %"class.llvm::User" }
%"class.llvm::User" = type { %"class.llvm::Value" }

; Function Attrs: mustprogress nounwind uwtable
define linkonce_odr hidden noundef nonnull align 8 dereferenceable(8) ptr @_ZNKSt6vectorIPN4llvm10BasicBlockESaIS2_EEixEm(ptr noundef nonnull align 8 dereferenceable(24) %0, i64 noundef %1) #0 comdat align 2 {
  %3 = alloca ptr, align 8
  %4 = alloca i64, align 8
  store ptr %0, ptr %3, align 8
  store i64 %1, ptr %4, align 8
  %5 = load ptr, ptr %3, align 8
  %6 = getelementptr inbounds nuw %"struct.std::_Vector_base", ptr %5, i32 0, i32 0
  %7 = getelementptr inbounds nuw %"struct.std::_Vector_base<llvm::BasicBlock *, std::allocator<llvm::BasicBlock *>>::_Vector_impl_data", ptr %6, i32 0, i32 0
  %8 = load ptr, ptr %7, align 8
  %9 = load i64, ptr %4, align 8
  %10 = getelementptr inbounds ptr, ptr %8, i64 %9
  ret ptr %10
}

; Function Attrs: mustprogress nounwind uwtable
define linkonce_odr hidden noundef ptr @_ZN4llvm10BasicBlock9getParentEv(ptr noundef nonnull align 8 dereferenceable(80) %0) #0 comdat align 2 {
  %2 = alloca ptr, align 8
  store ptr %0, ptr %2, align 8
  %3 = load ptr, ptr %2, align 8
  %4 = getelementptr inbounds nuw %"class.llvm::BasicBlock", ptr %3, i32 0, i32 5
  %5 = load ptr, ptr %4, align 8
  ret ptr %5
}

; Function Attrs: mustprogress nounwind uwtable
define linkonce_odr hidden noundef ptr @_ZNK4llvm5Trace18getEntryBasicBlockEv(ptr noundef nonnull align 8 dereferenceable(24) %0) #0 comdat align 2 {
  %2 = alloca ptr, align 8
  store ptr %0, ptr %2, align 8
  %3 = load ptr, ptr %2, align 8
  %4 = getelementptr inbounds nuw %"class.llvm::Trace", ptr %3, i32 0, i32 0
  %5 = call noundef nonnull align 8 dereferenceable(8) ptr @_ZNKSt6vectorIPN4llvm10BasicBlockESaIS2_EEixEm(ptr noundef nonnull align 8 dereferenceable(24) %4, i64 noundef 0) #4
  %6 = load ptr, ptr %5, align 8
  ret ptr %6
}

; Function Attrs: mustprogress nounwind uwtable
define linkonce_odr hidden noundef ptr @_ZN4llvm11GlobalValue9getParentEv(ptr noundef nonnull align 8 dereferenceable(48) %0) #0 comdat align 2 {
  %2 = alloca ptr, align 8
  store ptr %0, ptr %2, align 8
  %3 = load ptr, ptr %2, align 8
  %4 = getelementptr inbounds nuw %"class.llvm::GlobalValue", ptr %3, i32 0, i32 4
  %5 = load ptr, ptr %4, align 8
  ret ptr %5
}

; Function Attrs: mustprogress nounwind uwtable
define dso_local noundef ptr @_ZNK4llvm5Trace11getFunctionEv(ptr noundef nonnull align 8 dereferenceable(24) %0) #0 align 2 {
  %2 = alloca ptr, align 8
  store ptr %0, ptr %2, align 8
  %3 = load ptr, ptr %2, align 8
  %4 = call noundef ptr @_ZNK4llvm5Trace18getEntryBasicBlockEv(ptr noundef nonnull align 8 dereferenceable(24) %3)
  %5 = call noundef ptr @_ZN4llvm10BasicBlock9getParentEv(ptr noundef nonnull align 8 dereferenceable(80) %4)
  ret ptr %5
}

; Function Attrs: mustprogress nounwind uwtable
define dso_local noundef ptr @_ZNK4llvm5Trace9getModuleEv(ptr noundef nonnull align 8 dereferenceable(24) %0) #0 align 2 {
  %2 = alloca ptr, align 8
  store ptr %0, ptr %2, align 8
  %3 = load ptr, ptr %2, align 8
  %4 = call noundef ptr @_ZNK4llvm5Trace11getFunctionEv(ptr noundef nonnull align 8 dereferenceable(24) %3)
  %5 = call noundef ptr @_ZN4llvm11GlobalValue9getParentEv(ptr noundef nonnull align 8 dereferenceable(48) %4)
  ret ptr %5
}